target datalayout = "e-m:e-p270:32:32-p271:32:32-p272:64:64-i64:64-i128:128-f80:128-n8:16:32:64-S128"
target triple = "x86_64-unknown-linux-gnu"

%"class.rocksdb::PessimisticTransaction" = type <{ %"class.rocksdb::TransactionBaseImpl", i8, i8, [6 x i8], ptr, ptr, i64, i64, i64, i64, %"class.rocksdb::autovector", i32, [4 x i8], ptr, %"class.std::mutex", i64, i8, [7 x i8], i64, i8, [7 x i8] }>
%"class.rocksdb::TransactionBaseImpl" = type { %"class.rocksdb::Transaction", ptr, ptr, %"struct.rocksdb::WriteOptions", ptr, ptr, i64, %"class.std::shared_ptr", i64, i64, i64, %"class.rocksdb::WriteBatchWithIndex", %"class.std::unique_ptr.6", %"class.std::unique_ptr.14", %"class.rocksdb::WriteBatch", i8, i8, %"class.std::shared_ptr.40" }
%"class.rocksdb::Transaction" = type { ptr, i64, %"class.std::__cxx11::basic_string", %"struct.std::atomic.3", i64 }
%"class.std::__cxx11::basic_string" = type { %"struct.std::__cxx11::basic_string<char>::_Alloc_hider", i64, %union.anon }
%"struct.std::__cxx11::basic_string<char>::_Alloc_hider" = type { ptr }
%union.anon = type { i64, [8 x i8] }
%"struct.std::atomic.3" = type { i32 }
%"struct.rocksdb::WriteOptions" = type { i8, i8, i8, i8, i8, i8, i32, i64 }
%"class.std::shared_ptr" = type { %"class.std::__shared_ptr" }
%"class.std::__shared_ptr" = type { ptr, %"class.std::__shared_count" }
%"class.std::__shared_count" = type { ptr }
%"class.rocksdb::WriteBatchWithIndex" = type { %"class.rocksdb::WriteBatchBase", %"class.std::unique_ptr" }
%"class.rocksdb::WriteBatchBase" = type { ptr }
%"class.std::unique_ptr" = type { %"struct.std::__uniq_ptr_data" }
%"struct.std::__uniq_ptr_data" = type { %"class.std::__uniq_ptr_impl" }
%"class.std::__uniq_ptr_impl" = type { %"class.std::tuple" }
%"class.std::tuple" = type { %"struct.std::_Tuple_impl" }
%"struct.std::_Tuple_impl" = type { %"struct.std::_Head_base.5" }
%"struct.std::_Head_base.5" = type { ptr }
%"class.std::unique_ptr.6" = type { %"struct.std::__uniq_ptr_data.7" }
%"struct.std::__uniq_ptr_data.7" = type { %"class.std::__uniq_ptr_impl.8" }
%"class.std::__uniq_ptr_impl.8" = type { %"class.std::tuple.9" }
%"class.std::tuple.9" = type { %"struct.std::_Tuple_impl.10" }
%"struct.std::_Tuple_impl.10" = type { %"struct.std::_Head_base.13" }
%"struct.std::_Head_base.13" = type { ptr }
%"class.std::unique_ptr.14" = type { %"struct.std::__uniq_ptr_data.15" }
%"struct.std::__uniq_ptr_data.15" = type { %"class.std::__uniq_ptr_impl.16" }
%"class.std::__uniq_ptr_impl.16" = type { %"class.std::tuple.17" }
%"class.std::tuple.17" = type { %"struct.std::_Tuple_impl.18" }
%"struct.std::_Tuple_impl.18" = type { %"struct.std::_Head_base.21" }
%"struct.std::_Head_base.21" = type { ptr }
%"class.rocksdb::WriteBatch" = type { %"class.rocksdb::WriteBatchBase", %"class.std::unique_ptr.22", %"struct.rocksdb::SavePoint", i8, i8, i8, %"struct.std::atomic.30", i64, %"class.std::unique_ptr.32", i64, %"class.std::__cxx11::basic_string" }
%"class.std::unique_ptr.22" = type { %"struct.std::__uniq_ptr_data.23" }
%"struct.std::__uniq_ptr_data.23" = type { %"class.std::__uniq_ptr_impl.24" }
%"class.std::__uniq_ptr_impl.24" = type { %"class.std::tuple.25" }
%"class.std::tuple.25" = type { %"struct.std::_Tuple_impl.26" }
%"struct.std::_Tuple_impl.26" = type { %"struct.std::_Head_base.29" }
%"struct.std::_Head_base.29" = type { ptr }
%"struct.rocksdb::SavePoint" = type { i64, i32, i32 }
%"struct.std::atomic.30" = type { %"struct.std::__atomic_base.31" }
%"struct.std::__atomic_base.31" = type { i32 }
%"class.std::unique_ptr.32" = type { %"struct.std::__uniq_ptr_data.33" }
%"struct.std::__uniq_ptr_data.33" = type { %"class.std::__uniq_ptr_impl.34" }
%"class.std::__uniq_ptr_impl.34" = type { %"class.std::tuple.35" }
%"class.std::tuple.35" = type { %"struct.std::_Tuple_impl.36" }
%"struct.std::_Tuple_impl.36" = type { %"struct.std::_Head_base.39" }
%"struct.std::_Head_base.39" = type { ptr }
%"class.std::shared_ptr.40" = type { %"class.std::__shared_ptr.41" }
%"class.std::__shared_ptr.41" = type { ptr, %"class.std::__shared_count" }
%"class.rocksdb::autovector" = type { i64, [64 x i8], ptr, %"class.std::vector.43" }
%"class.std::vector.43" = type { %"struct.std::_Vector_base.44" }
%"struct.std::_Vector_base.44" = type { %"struct.std::_Vector_base<unsigned long, std::allocator<unsigned long>>::_Vector_impl" }
%"struct.std::_Vector_base<unsigned long, std::allocator<unsigned long>>::_Vector_impl" = type { %"struct.std::_Vector_base<unsigned long, std::allocator<unsigned long>>::_Vector_impl_data" }
%"struct.std::_Vector_base<unsigned long, std::allocator<unsigned long>>::_Vector_impl_data" = type { ptr, ptr, ptr }
%"class.std::mutex" = type { %"class.std::__mutex_base" }
%"class.std::__mutex_base" = type { %union.pthread_mutex_t }
%union.pthread_mutex_t = type { %struct.__pthread_mutex_s }
%struct.__pthread_mutex_s = type { i32, i32, i32, i32, i32, i16, i16, %struct.__pthread_internal_list }
%struct.__pthread_internal_list = type { ptr, ptr }

; Function Attrs: mustprogress nounwind uwtable
define linkonce_odr noundef i32 @_ZNKSt6atomicIN7rocksdb11Transaction16TransactionStateEE4loadESt12memory_order(ptr noundef nonnull align 4 dereferenceable(4) %this, i32 noundef %__m) #1 comdat align 2 {
entry:
  %this.addr = alloca ptr, align 8
  %__m.addr = alloca i32, align 4
  %__buf = alloca [4 x i8], align 4
  %__ptr = alloca ptr, align 8
  store ptr %this, ptr %this.addr, align 8
  store i32 %__m, ptr %__m.addr, align 4
  %this1 = load ptr, ptr %this.addr, align 8
  %arraydecay = getelementptr inbounds [4 x i8], ptr %__buf, i64 0, i64 0
  store ptr %arraydecay, ptr %__ptr, align 8
  %_M_i = getelementptr inbounds %"struct.std::atomic.3", ptr %this1, i32 0, i32 0
  %0 = load i32, ptr %__m.addr, align 4
  %1 = load ptr, ptr %__ptr, align 8
  switch i32 %0, label %monotonic [
    i32 1, label %acquire
    i32 2, label %acquire
    i32 5, label %seqcst
  ]

monotonic:                                        ; preds = %entry
  %2 = load atomic i32, ptr %_M_i monotonic, align 4
  store i32 %2, ptr %1, align 4
  br label %atomic.continue

acquire:                                          ; preds = %entry, %entry
  %3 = load atomic i32, ptr %_M_i acquire, align 4
  store i32 %3, ptr %1, align 4
  br label %atomic.continue

seqcst:                                           ; preds = %entry
  %4 = load atomic i32, ptr %_M_i seq_cst, align 4
  store i32 %4, ptr %1, align 4
  br label %atomic.continue

atomic.continue:                                  ; preds = %seqcst, %acquire, %monotonic
  %5 = load ptr, ptr %__ptr, align 8
  %6 = load i32, ptr %5, align 4
  ret i32 %6
}

; Function Attrs: mustprogress nounwind uwtable
define linkonce_odr noundef i32 @_ZNKSt6atomicIN7rocksdb11Transaction16TransactionStateEEcvS2_Ev(ptr noundef nonnull align 4 dereferenceable(4) %this) #1 comdat align 2 {
entry:
  %this.addr = alloca ptr, align 8
  store ptr %this, ptr %this.addr, align 8
  %this1 = load ptr, ptr %this.addr, align 8
  %call = call noundef i32 @_ZNKSt6atomicIN7rocksdb11Transaction16TransactionStateEE4loadESt12memory_order(ptr noundef nonnull align 4 dereferenceable(4) %this1, i32 noundef 5) #3
  ret i32 %call
}

; Function Attrs: mustprogress uwtable
define void @_ZN7rocksdb22PessimisticTransaction12ReinitializeEPNS_13TransactionDBERKNS_12WriteOptionsERKNS_18TransactionOptionsE(ptr noundef nonnull align 8 dereferenceable(561) %this, ptr noundef %txn_db, ptr noundef nonnull align 8 dereferenceable(24) %write_options, ptr noundef nonnull align 8 dereferenceable(56) %txn_options) #0 align 2 {
entry:
  %this.addr = alloca ptr, align 8
  %txn_db.addr = alloca ptr, align 8
  %write_options.addr = alloca ptr, align 8
  %txn_options.addr = alloca ptr, align 8
  store ptr %this, ptr %this.addr, align 8
  store ptr %txn_db, ptr %txn_db.addr, align 8
  store ptr %write_options, ptr %write_options.addr, align 8
  store ptr %txn_options, ptr %txn_options.addr, align 8
  %this1 = load ptr, ptr %this.addr, align 8
  %name_ = getelementptr inbounds %"class.rocksdb::Transaction", ptr %this1, i32 0, i32 2
  %call = call noundef zeroext i1 @_ZNKSt7__cxx1112basic_stringIcSt11char_traitsIcESaIcEE5emptyEv(ptr noundef nonnull align 8 dereferenceable(32) %name_) #3
  br i1 %call, label %if.end, label %land.lhs.true

land.lhs.true:                                    ; preds = %entry
  %txn_state_ = getelementptr inbounds %"class.rocksdb::Transaction", ptr %this1, i32 0, i32 3
  %call2 = call noundef i32 @_ZNKSt6atomicIN7rocksdb11Transaction16TransactionStateEEcvS2_Ev(ptr noundef nonnull align 4 dereferenceable(4) %txn_state_) #3
  %cmp = icmp ne i32 %call2, 4
  br i1 %cmp, label %if.then, label %if.end

if.then:                                          ; preds = %land.lhs.true
  %txn_db_impl_ = getelementptr inbounds %"class.rocksdb::PessimisticTransaction", ptr %this1, i32 0, i32 4
  %0 = load ptr, ptr %txn_db_impl_, align 8
  call void @_ZN7rocksdb24PessimisticTransactionDB21UnregisterTransactionEPNS_11TransactionE(ptr noundef nonnull align 8 dereferenceable(480) %0, ptr noundef %this1)
  br label %if.end

if.end:                                           ; preds = %if.then, %land.lhs.true, %entry
  %1 = load ptr, ptr %txn_db.addr, align 8
  %vtable = load ptr, ptr %1, align 8
  %vfn = getelementptr inbounds ptr, ptr %vtable, i64 147
  %2 = load ptr, ptr %vfn, align 8
  %call3 = call noundef ptr %2(ptr noundef nonnull align 8 dereferenceable(32) %1)
  %3 = load ptr, ptr %write_options.addr, align 8
  call void @_ZN7rocksdb19TransactionBaseImpl12ReinitializeEPNS_2DBERKNS_12WriteOptionsE(ptr noundef nonnull align 8 dereferenceable(320) %this1, ptr noundef %call3, ptr noundef nonnull align 8 dereferenceable(24) %3)
  %4 = load ptr, ptr %txn_options.addr, align 8
  %vtable4 = load ptr, ptr %this1, align 8
  %vfn5 = getelementptr inbounds ptr, ptr %vtable4, i64 93
  %5 = load ptr, ptr %vfn5, align 8
  call void %5(ptr noundef nonnull align 8 dereferenceable(561) %this1, ptr noundef nonnull align 8 dereferenceable(56) %4)
  ret void
}