; Function Attrs: mustprogress uwtable
define void @_ZN7rocksdb22PessimisticTransaction12ReinitializeEPNS_13TransactionDBERKNS_12WriteOptionsERKNS_18TransactionOptionsE(ptr noundef nonnull align 8 dereferenceable(561) %this, ptr noundef %txn_db, ptr noundef nonnull align 8 dereferenceable(24) %write_options, ptr noundef nonnull align 8 dereferenceable(56) %txn_options) local_unnamed_addr #3 align 2 {
entry:
  %name_ = getelementptr inbounds i8, ptr %this, i64 16
  %call = tail call noundef zeroext i1 @_ZNKSt7__cxx1112basic_stringIcSt11char_traitsIcESaIcEE5emptyEv(ptr noundef nonnull align 8 dereferenceable(32) %name_) #22
  br i1 %call, label %if.end, label %land.lhs.true

land.lhs.true:                                    ; preds = %entry
  %txn_state_ = getelementptr inbounds i8, ptr %this, i64 48
  %0 = load atomic i32, ptr %txn_state_ seq_cst, align 8
  %cmp.not = icmp eq i32 %0, 4
  br i1 %cmp.not, label %if.end, label %if.then

if.then:                                          ; preds = %land.lhs.true
  %txn_db_impl_ = getelementptr inbounds i8, ptr %this, i64 328
  %1 = load ptr, ptr %txn_db_impl_, align 8
  tail call void @_ZN7rocksdb24PessimisticTransactionDB21UnregisterTransactionEPNS_11TransactionE(ptr noundef nonnull align 8 dereferenceable(480) %1, ptr noundef nonnull %this)
  br label %if.end

if.end:                                           ; preds = %if.then, %land.lhs.true, %entry
  %vtable = load ptr, ptr %txn_db, align 8
  %vfn = getelementptr inbounds i8, ptr %vtable, i64 1176
  %2 = load ptr, ptr %vfn, align 8
  %call3 = tail call noundef ptr %2(ptr noundef nonnull align 8 dereferenceable(32) %txn_db)
  tail call void @_ZN7rocksdb19TransactionBaseImpl12ReinitializeEPNS_2DBERKNS_12WriteOptionsE(ptr noundef nonnull align 8 dereferenceable(320) %this, ptr noundef %call3, ptr noundef nonnull align 8 dereferenceable(24) %write_options)
  %vtable4 = load ptr, ptr %this, align 8
  %vfn5 = getelementptr inbounds i8, ptr %vtable4, i64 744
  %3 = load ptr, ptr %vfn5, align 8
  tail call void %3(ptr noundef nonnull align 8 dereferenceable(561) %this, ptr noundef nonnull align 8 dereferenceable(56) %txn_options)
  ret void
}